target datalayout = "e-m:e-p270:32:32-p271:32:32-p272:64:64-i64:64-i128:128-f80:128-n8:16:32:64-S128"
target triple = "x86_64-pc-linux-gnu"

%struct.hwloc_infos_s = type { ptr, i32, i32 }
%struct.hwloc_obj = type { i32, ptr, i32, ptr, i64, ptr, i32, i32, ptr, ptr, ptr, i32, ptr, ptr, i32, ptr, ptr, ptr, i32, i32, ptr, i32, ptr, i32, ptr, ptr, ptr, ptr, ptr, %struct.hwloc_infos_s, ptr, i64 }

; Function Attrs: nounwind uwtable
define internal void @hwloc_filter_bridges(ptr noundef %0, ptr noundef %1) #0 {
  %3 = alloca ptr, align 8
  %4 = alloca ptr, align 8
  %5 = alloca ptr, align 8
  store ptr %0, ptr %3, align 8, !tbaa !3
  store ptr %1, ptr %4, align 8, !tbaa !37
  call void @llvm.lifetime.start.p0(i64 8, ptr %5) #14
  %6 = load ptr, ptr %4, align 8, !tbaa !37
  %7 = getelementptr inbounds nuw %struct.hwloc_obj, ptr %6, i32 0, i32 16
  %8 = load ptr, ptr %7, align 8, !tbaa !130
  store ptr %8, ptr %5, align 8, !tbaa !37
  br label %9

9:                                                ; preds = %12, %2
  %10 = load ptr, ptr %5, align 8, !tbaa !37
  %11 = icmp ne ptr %10, null
  br i1 %11, label %12, label %18

12:                                               ; preds = %9
  %13 = load ptr, ptr %3, align 8, !tbaa !3
  %14 = load ptr, ptr %5, align 8, !tbaa !37
  call void @hwloc_filter_bridges(ptr noundef %13, ptr noundef %14)
  %15 = load ptr, ptr %5, align 8, !tbaa !37
  %16 = getelementptr inbounds nuw %struct.hwloc_obj, ptr %15, i32 0, i32 12
  %17 = load ptr, ptr %16, align 8, !tbaa !82
  store ptr %17, ptr %5, align 8, !tbaa !37
  br label %9, !llvm.loop !266

18:                                               ; preds = %9
  %19 = load ptr, ptr %3, align 8, !tbaa !3
  %20 = load ptr, ptr %4, align 8, !tbaa !37
  call void @hwloc__filter_bridges(ptr noundef %19, ptr noundef %20, i32 noundef 0)
  call void @llvm.lifetime.end.p0(i64 8, ptr %5) #14
  ret void
}