; Function Attrs: nounwind uwtable
define internal fastcc void @hwloc_filter_bridges(ptr noundef captures(none) %0, ptr noundef captures(none) %1) unnamed_addr #5 {
  %3 = getelementptr inbounds nuw i8, ptr %1, i64 120
  %.07 = load ptr, ptr %3, align 8, !tbaa !50
  %.not8 = icmp eq ptr %.07, null
  br i1 %.not8, label %._crit_edge, label %.lr.ph

.lr.ph:                                           ; preds = %2, %.lr.ph
  %.09 = phi ptr [ %.0, %.lr.ph ], [ %.07, %2 ]
  tail call fastcc void @hwloc_filter_bridges(ptr noundef %0, ptr noundef nonnull %.09)
  %4 = getelementptr inbounds nuw i8, ptr %.09, i64 88
  %.0 = load ptr, ptr %4, align 8, !tbaa !50
  %.not = icmp eq ptr %.0, null
  br i1 %.not, label %._crit_edge, label %.lr.ph, !llvm.loop !247

._crit_edge:                                      ; preds = %.lr.ph, %2
  tail call fastcc void @hwloc__filter_bridges(ptr noundef %0, ptr noundef %1, i32 noundef 0)
  ret void
}